target datalayout = "e-m:e-p270:32:32-p271:32:32-p272:64:64-i64:64-i128:128-f80:128-n8:16:32:64-S128"
target triple = "x86_64-pc-linux-gnu"

%struct.ThreadList = type { ptr }
%struct.ThreadNode = type { ptr, i16, i32, ptr, i32, i32, %struct.StepRequest, %struct.InvokeRequest, ptr, %struct.CoLocatedEventInfo_, ptr, ptr, i64, ptr }
%struct.StepRequest = type { i32, i32, i8, i8, i8, i32, i32, ptr, ptr, i32, ptr, ptr, ptr, ptr }
%struct.InvokeRequest = type { i8, i8, i8, i8, i32, i8, i8, ptr, ptr, ptr, ptr, i32, ptr, %union.jvalue, ptr }
%union.jvalue = type { i64 }
%struct.CoLocatedEventInfo_ = type { i32, ptr, ptr, i64 }

@runningThreads = internal global %struct.ThreadList zeroinitializer, align 8
@runningVThreads = internal global %struct.ThreadList zeroinitializer, align 8
@threadLock = internal global ptr null, align 8

; Function Attrs: nounwind uwtable
define internal ptr @findRunningThread(ptr noundef %0) #0 {
  %2 = alloca ptr, align 8
  %3 = alloca ptr, align 8
  store ptr %0, ptr %2, align 8
  %4 = load ptr, ptr %2, align 8
  %5 = call zeroext i8 @isVThread(ptr noundef %4)
  %6 = icmp ne i8 %5, 0
  br i1 %6, label %7, label %10

7:                                                ; preds = %1
  %8 = load ptr, ptr %2, align 8
  %9 = call ptr @findThread(ptr noundef @runningVThreads, ptr noundef %8)
  store ptr %9, ptr %3, align 8
  br label %13

10:                                               ; preds = %1
  %11 = load ptr, ptr %2, align 8
  %12 = call ptr @findThread(ptr noundef @runningThreads, ptr noundef %11)
  store ptr %12, ptr %3, align 8
  br label %13

13:                                               ; preds = %10, %7
  %14 = load ptr, ptr %3, align 8
  ret ptr %14
}

; Function Attrs: nounwind uwtable
define hidden void @threadControl_clearCLEInfo(ptr noundef %0, ptr noundef %1) #0 {
  %3 = alloca ptr, align 8
  %4 = alloca ptr, align 8
  %5 = alloca ptr, align 8
  store ptr %0, ptr %3, align 8
  store ptr %1, ptr %4, align 8
  %6 = load ptr, ptr @threadLock, align 8
  call void @debugMonitorEnter(ptr noundef %6)
  %7 = load ptr, ptr %4, align 8
  %8 = call ptr @findRunningThread(ptr noundef %7)
  store ptr %8, ptr %5, align 8
  %9 = load ptr, ptr %5, align 8
  %10 = icmp ne ptr %9, null
  br i1 %10, label %11, label %26

11:                                               ; preds = %2
  %12 = load ptr, ptr %5, align 8
  %13 = getelementptr inbounds %struct.ThreadNode, ptr %12, i32 0, i32 9
  %14 = getelementptr inbounds %struct.CoLocatedEventInfo_, ptr %13, i32 0, i32 0
  store i32 0, ptr %14, align 8
  %15 = load ptr, ptr %5, align 8
  %16 = getelementptr inbounds %struct.ThreadNode, ptr %15, i32 0, i32 9
  %17 = getelementptr inbounds %struct.CoLocatedEventInfo_, ptr %16, i32 0, i32 1
  %18 = load ptr, ptr %17, align 8
  %19 = icmp ne ptr %18, null
  br i1 %19, label %20, label %25

20:                                               ; preds = %11
  %21 = load ptr, ptr %3, align 8
  %22 = load ptr, ptr %5, align 8
  %23 = getelementptr inbounds %struct.ThreadNode, ptr %22, i32 0, i32 9
  %24 = getelementptr inbounds %struct.CoLocatedEventInfo_, ptr %23, i32 0, i32 1
  call void @tossGlobalRef(ptr noundef %21, ptr noundef %24)
  br label %25

25:                                               ; preds = %20, %11
  br label %26

26:                                               ; preds = %25, %2
  %27 = load ptr, ptr @threadLock, align 8
  call void @debugMonitorExit(ptr noundef %27)
  ret void
}