; Function Attrs: nounwind uwtable
define hidden void @threadControl_clearCLEInfo(ptr noundef %0, ptr noundef %1) local_unnamed_addr #0 {
  %3 = load ptr, ptr @threadLock, align 8
  tail call void @debugMonitorEnter(ptr noundef %3) #6
  %4 = tail call zeroext i8 @isVThread(ptr noundef %1) #6
  %.not.i = icmp eq i8 %4, 0
  %runningThreads.runningVThreads.i = select i1 %.not.i, ptr @runningThreads, ptr @runningVThreads
  %5 = tail call fastcc ptr @findThread(ptr noundef nonnull %runningThreads.runningVThreads.i, ptr noundef %1)
  %.not = icmp eq ptr %5, null
  br i1 %.not, label %11, label %6

6:                                                ; preds = %2
  %7 = getelementptr inbounds i8, ptr %5, i64 200
  store i32 0, ptr %7, align 8
  %8 = getelementptr inbounds i8, ptr %5, i64 208
  %9 = load ptr, ptr %8, align 8
  %.not6 = icmp eq ptr %9, null
  br i1 %.not6, label %11, label %10

10:                                               ; preds = %6
  tail call void @tossGlobalRef(ptr noundef %0, ptr noundef nonnull %8) #6
  br label %11

11:                                               ; preds = %6, %10, %2
  %12 = load ptr, ptr @threadLock, align 8
  tail call void @debugMonitorExit(ptr noundef %12) #6
  ret void
}